target datalayout = "e-m:e-p270:32:32-p271:32:32-p272:64:64-i64:64-i128:128-f80:128-n8:16:32:64-S128"
target triple = "x86_64-pc-linux-gnu"

%struct.H5O_loc_t = type { ptr, i64, i8 }
%struct.H5O_ginfo_t = type { i32, i8, i16, i16, i8, i16, i16 }

@.str = private unnamed_addr constant [101 x i8] c"generated/home/dtcxzyw/WorkSpace/Projects/compilers/llvm-opt-benchmark/bench/hdf5/hdf5/src/H5Gstab.c\00", align 1
@H5E_SYM_g = external global i64, align 8
@H5E_CANTINIT_g = external global i64, align 8
@__func__.H5G__stab_create = private unnamed_addr constant [17 x i8] c"H5G__stab_create\00", align 1
@.str.7 = private unnamed_addr constant [37 x i8] c"can't create symbol table components\00", align 1
@.str.8 = private unnamed_addr constant [21 x i8] c"can't create message\00", align 1

; Function Attrs: nounwind uwtable
define i32 @H5G__stab_create(ptr noundef %0, ptr noundef %1, ptr noundef %2) #0 {
  %4 = alloca ptr, align 8
  %5 = alloca ptr, align 8
  %6 = alloca ptr, align 8
  %7 = alloca i64, align 8
  %8 = alloca i64, align 8
  %9 = alloca i32, align 4
  %10 = alloca i64, align 8
  %11 = alloca i8, align 1
  store ptr %0, ptr %4, align 8
  store ptr %1, ptr %5, align 8
  store ptr %2, ptr %6, align 8
  store i32 0, ptr %9, align 4
  store i64 -1, ptr %10, align 8
  store i8 0, ptr %11, align 1
  %12 = load ptr, ptr %4, align 8
  %13 = getelementptr inbounds %struct.H5O_loc_t, ptr %12, i32 0, i32 1
  %14 = load i64, ptr %13, align 8
  call void @H5AC_tag(i64 noundef %14, ptr noundef %10)
  %15 = load ptr, ptr %5, align 8
  %16 = getelementptr inbounds %struct.H5O_ginfo_t, ptr %15, i32 0, i32 0
  %17 = load i32, ptr %16, align 4
  %18 = icmp eq i32 %17, 0
  br i1 %18, label %19, label %48

19:                                               ; preds = %3
  %20 = load ptr, ptr %5, align 8
  %21 = getelementptr inbounds %struct.H5O_ginfo_t, ptr %20, i32 0, i32 5
  %22 = load i16, ptr %21, align 4
  %23 = zext i16 %22 to i32
  %24 = load ptr, ptr %5, align 8
  %25 = getelementptr inbounds %struct.H5O_ginfo_t, ptr %24, i32 0, i32 6
  %26 = load i16, ptr %25, align 2
  %27 = zext i16 %26 to i32
  %28 = add i32 %27, 1
  %29 = add i32 %28, 7
  %30 = and i32 %29, -8
  %31 = mul i32 %23, %30
  %32 = add i32 8, %31
  %33 = load ptr, ptr %4, align 8
  %34 = getelementptr inbounds %struct.H5O_loc_t, ptr %33, i32 0, i32 0
  %35 = load ptr, ptr %34, align 8
  %36 = call zeroext i8 @H5F_sizeof_size(ptr noundef %35)
  %37 = zext i8 %36 to i32
  %38 = load ptr, ptr %4, align 8
  %39 = getelementptr inbounds %struct.H5O_loc_t, ptr %38, i32 0, i32 0
  %40 = load ptr, ptr %39, align 8
  %41 = call zeroext i8 @H5F_sizeof_size(ptr noundef %40)
  %42 = zext i8 %41 to i32
  %43 = add i32 %37, %42
  %44 = add i32 %43, 7
  %45 = and i32 %44, -8
  %46 = add i32 %32, %45
  %47 = zext i32 %46 to i64
  store i64 %47, ptr %7, align 8
  br label %53

48:                                               ; preds = %3
  %49 = load ptr, ptr %5, align 8
  %50 = getelementptr inbounds %struct.H5O_ginfo_t, ptr %49, i32 0, i32 0
  %51 = load i32, ptr %50, align 4
  %52 = zext i32 %51 to i64
  store i64 %52, ptr %7, align 8
  br label %53

53:                                               ; preds = %48, %19
  %54 = load i64, ptr %7, align 8
  %55 = load ptr, ptr %4, align 8
  %56 = getelementptr inbounds %struct.H5O_loc_t, ptr %55, i32 0, i32 0
  %57 = load ptr, ptr %56, align 8
  %58 = call zeroext i8 @H5F_sizeof_size(ptr noundef %57)
  %59 = zext i8 %58 to i32
  %60 = load ptr, ptr %4, align 8
  %61 = getelementptr inbounds %struct.H5O_loc_t, ptr %60, i32 0, i32 0
  %62 = load ptr, ptr %61, align 8
  %63 = call zeroext i8 @H5F_sizeof_size(ptr noundef %62)
  %64 = zext i8 %63 to i32
  %65 = add i32 %59, %64
  %66 = add i32 %65, 7
  %67 = and i32 %66, -8
  %68 = add i32 %67, 2
  %69 = zext i32 %68 to i64
  %70 = icmp ugt i64 %54, %69
  br i1 %70, label %71, label %73

71:                                               ; preds = %53
  %72 = load i64, ptr %7, align 8
  br label %89

73:                                               ; preds = %53
  %74 = load ptr, ptr %4, align 8
  %75 = getelementptr inbounds %struct.H5O_loc_t, ptr %74, i32 0, i32 0
  %76 = load ptr, ptr %75, align 8
  %77 = call zeroext i8 @H5F_sizeof_size(ptr noundef %76)
  %78 = zext i8 %77 to i32
  %79 = load ptr, ptr %4, align 8
  %80 = getelementptr inbounds %struct.H5O_loc_t, ptr %79, i32 0, i32 0
  %81 = load ptr, ptr %80, align 8
  %82 = call zeroext i8 @H5F_sizeof_size(ptr noundef %81)
  %83 = zext i8 %82 to i32
  %84 = add i32 %78, %83
  %85 = add i32 %84, 7
  %86 = and i32 %85, -8
  %87 = add i32 %86, 2
  %88 = zext i32 %87 to i64
  br label %89

89:                                               ; preds = %73, %71
  %90 = phi i64 [ %72, %71 ], [ %88, %73 ]
  store i64 %90, ptr %8, align 8
  %91 = load ptr, ptr %4, align 8
  %92 = getelementptr inbounds %struct.H5O_loc_t, ptr %91, i32 0, i32 0
  %93 = load ptr, ptr %92, align 8
  %94 = load ptr, ptr %6, align 8
  %95 = load i64, ptr %8, align 8
  %96 = call i32 @H5G__stab_create_components(ptr noundef %93, ptr noundef %94, i64 noundef %95)
  %97 = icmp slt i32 %96, 0
  br i1 %97, label %98, label %113

98:                                               ; preds = %89
  br label %99

99:                                               ; preds = %98
  br label %100

100:                                              ; preds = %99
  br label %101

101:                                              ; preds = %100
  %102 = load i64, ptr @H5E_SYM_g, align 8
  %103 = load i64, ptr @H5E_CANTINIT_g, align 8
  %104 = call i32 (ptr, ptr, i32, i64, i64, ptr, ...) @H5E_printf_stack(ptr noundef @.str, ptr noundef @__func__.H5G__stab_create, i32 noundef 205, i64 noundef %102, i64 noundef %103, ptr noundef @.str.7)
  br label %105

105:                                              ; preds = %101
  store i8 1, ptr %11, align 1
  %106 = load i8, ptr %11, align 1
  %107 = trunc i8 %106 to i1
  %108 = zext i1 %107 to i8
  store i8 %108, ptr %11, align 1
  br label %109

109:                                              ; preds = %105
  br label %110

110:                                              ; preds = %109
  store i32 -1, ptr %9, align 4
  br label %134

111:                                              ; No predecessors!
  br label %112

112:                                              ; preds = %111
  br label %113

113:                                              ; preds = %112, %89
  %114 = load ptr, ptr %4, align 8
  %115 = load ptr, ptr %6, align 8
  %116 = call i32 @H5O_msg_create(ptr noundef %114, i32 noundef 17, i32 noundef 0, i32 noundef 1, ptr noundef %115)
  %117 = icmp slt i32 %116, 0
  br i1 %117, label %118, label %133

118:                                              ; preds = %113
  br label %119

119:                                              ; preds = %118
  br label %120

120:                                              ; preds = %119
  br label %121

121:                                              ; preds = %120
  %122 = load i64, ptr @H5E_SYM_g, align 8
  %123 = load i64, ptr @H5E_CANTINIT_g, align 8
  %124 = call i32 (ptr, ptr, i32, i64, i64, ptr, ...) @H5E_printf_stack(ptr noundef @.str, ptr noundef @__func__.H5G__stab_create, i32 noundef 212, i64 noundef %122, i64 noundef %123, ptr noundef @.str.8)
  br label %125

125:                                              ; preds = %121
  store i8 1, ptr %11, align 1
  %126 = load i8, ptr %11, align 1
  %127 = trunc i8 %126 to i1
  %128 = zext i1 %127 to i8
  store i8 %128, ptr %11, align 1
  br label %129

129:                                              ; preds = %125
  br label %130

130:                                              ; preds = %129
  store i32 -1, ptr %9, align 4
  br label %134

131:                                              ; No predecessors!
  br label %132

132:                                              ; preds = %131
  br label %133

133:                                              ; preds = %132, %113
  br label %134

134:                                              ; preds = %133, %130, %110
  %135 = load i64, ptr %10, align 8
  call void @H5AC_tag(i64 noundef %135, ptr noundef null)
  %136 = load i32, ptr %9, align 4
  ret i32 %136
}