; Function Attrs: nounwind uwtable
define range(i32 -1, 1) i32 @H5G__stab_create(ptr noundef %0, ptr nocapture noundef readonly %1, ptr noundef %2) local_unnamed_addr #0 {
  %4 = alloca i64, align 8
  store i64 -1, ptr %4, align 8
  %5 = getelementptr inbounds i8, ptr %0, i64 8
  %6 = load i64, ptr %5, align 8
  call void @H5AC_tag(i64 noundef %6, ptr noundef nonnull %4) #6
  %7 = load i32, ptr %1, align 4
  %8 = icmp eq i32 %7, 0
  br i1 %8, label %9, label %31

9:                                                ; preds = %3
  %10 = getelementptr inbounds i8, ptr %1, i64 12
  %11 = load i16, ptr %10, align 4
  %12 = zext i16 %11 to i64
  %13 = getelementptr inbounds i8, ptr %1, i64 14
  %14 = load i16, ptr %13, align 2
  %15 = zext i16 %14 to i64
  %16 = add nuw nsw i64 %15, 8
  %17 = and i64 %16, 131064
  %18 = mul nuw nsw i64 %17, %12
  %19 = add nuw nsw i64 %18, 8
  %20 = load ptr, ptr %0, align 8
  %21 = call zeroext i8 @H5F_sizeof_size(ptr noundef %20) #6
  %22 = zext i8 %21 to i64
  %23 = load ptr, ptr %0, align 8
  %24 = call zeroext i8 @H5F_sizeof_size(ptr noundef %23) #6
  %25 = zext i8 %24 to i64
  %26 = add nuw nsw i64 %22, 7
  %27 = add nuw nsw i64 %26, %25
  %28 = and i64 %27, 1016
  %29 = add nuw nsw i64 %19, %28
  %30 = and i64 %29, 4294967288
  br label %33

31:                                               ; preds = %3
  %32 = zext i32 %7 to i64
  br label %33

33:                                               ; preds = %31, %9
  %.020 = phi i64 [ %30, %9 ], [ %32, %31 ]
  %34 = load ptr, ptr %0, align 8
  %35 = call zeroext i8 @H5F_sizeof_size(ptr noundef %34) #6
  %36 = zext i8 %35 to i64
  %37 = load ptr, ptr %0, align 8
  %38 = call zeroext i8 @H5F_sizeof_size(ptr noundef %37) #6
  %39 = zext i8 %38 to i64
  %40 = add nuw nsw i64 %36, 7
  %41 = add nuw nsw i64 %40, %39
  %42 = and i64 %41, 1016
  %43 = or disjoint i64 %42, 2
  %44 = icmp ugt i64 %.020, %43
  br i1 %44, label %56, label %45

45:                                               ; preds = %33
  %46 = load ptr, ptr %0, align 8
  %47 = call zeroext i8 @H5F_sizeof_size(ptr noundef %46) #6
  %48 = zext i8 %47 to i64
  %49 = load ptr, ptr %0, align 8
  %50 = call zeroext i8 @H5F_sizeof_size(ptr noundef %49) #6
  %51 = zext i8 %50 to i64
  %52 = add nuw nsw i64 %48, 7
  %53 = add nuw nsw i64 %52, %51
  %54 = and i64 %53, 1016
  %55 = or disjoint i64 %54, 2
  br label %56

56:                                               ; preds = %33, %45
  %57 = phi i64 [ %55, %45 ], [ %.020, %33 ]
  %58 = load ptr, ptr %0, align 8
  %59 = call i32 @H5G__stab_create_components(ptr noundef %58, ptr noundef %2, i64 noundef %57)
  %60 = icmp slt i32 %59, 0
  br i1 %60, label %61, label %65

61:                                               ; preds = %56
  %62 = load i64, ptr @H5E_SYM_g, align 8
  %63 = load i64, ptr @H5E_CANTINIT_g, align 8
  %64 = call i32 (ptr, ptr, i32, i64, i64, ptr, ...) @H5E_printf_stack(ptr noundef nonnull @.str, ptr noundef nonnull @__func__.H5G__stab_create, i32 noundef 205, i64 noundef %62, i64 noundef %63, ptr noundef nonnull @.str.7) #6
  br label %72

65:                                               ; preds = %56
  %66 = call i32 @H5O_msg_create(ptr noundef nonnull %0, i32 noundef 17, i32 noundef 0, i32 noundef 1, ptr noundef %2) #6
  %67 = icmp slt i32 %66, 0
  br i1 %67, label %68, label %72

68:                                               ; preds = %65
  %69 = load i64, ptr @H5E_SYM_g, align 8
  %70 = load i64, ptr @H5E_CANTINIT_g, align 8
  %71 = call i32 (ptr, ptr, i32, i64, i64, ptr, ...) @H5E_printf_stack(ptr noundef nonnull @.str, ptr noundef nonnull @__func__.H5G__stab_create, i32 noundef 212, i64 noundef %69, i64 noundef %70, ptr noundef nonnull @.str.8) #6
  br label %72

72:                                               ; preds = %65, %68, %61
  %.0 = phi i32 [ -1, %61 ], [ -1, %68 ], [ 0, %65 ]
  %73 = load i64, ptr %4, align 8
  call void @H5AC_tag(i64 noundef %73, ptr noundef null) #6
  ret i32 %.0
}